BL51 BANKED LINKER/LOCATER V6.22.2.0                                                    03/25/2022  01:01:10  PAGE 1


BL51 BANKED LINKER/LOCATER V6.22.2.0, INVOKED BY:
D:\KEIL_V5\C51\BIN\BL51.EXE .\Objects\test.obj TO .\Objects\test PRINT (.\Listings\test.m51)


MEMORY MODEL: SMALL


INPUT MODULES INCLUDED:
  .\Objects\test.obj (TEST)
  D:\KEIL_V5\C51\LIB\C51S.LIB (?C_STARTUP)
  D:\KEIL_V5\C51\LIB\C51S.LIB (?C?SIDIV)
  D:\KEIL_V5\C51\LIB\C51S.LIB (PRINTF)
  D:\KEIL_V5\C51\LIB\C51S.LIB (?C?CLDPTR)
  D:\KEIL_V5\C51\LIB\C51S.LIB (?C?CLDOPTR)
  D:\KEIL_V5\C51\LIB\C51S.LIB (?C?CSTPTR)
  D:\KEIL_V5\C51\LIB\C51S.LIB (?C?UIDIV)
  D:\KEIL_V5\C51\LIB\C51S.LIB (?C?PLDIIDATA)
  D:\KEIL_V5\C51\LIB\C51S.LIB (?C?CCASE)
  D:\KEIL_V5\C51\LIB\C51S.LIB (PUTCHAR)


LINK MAP OF MODULE:  .\Objects\test (TEST)


            TYPE    BASE      LENGTH    RELOCATION   SEGMENT NAME
            -----------------------------------------------------

            * * * * * * *   D A T A   M E M O R Y   * * * * * * *
            REG     0000H     0008H     ABSOLUTE     "REG BANK 0"
            DATA    0008H     0014H     UNIT         _DATA_GROUP_
            DATA    001CH     0004H     UNIT         ?DT?TEST
            BIT     0020H.0   0001H.1   UNIT         _BIT_GROUP_
                    0021H.1   000EH.7                *** GAP ***
            DATA    0030H     0001H     ABSOLUTE     
            DATA    0031H     0001H     ABSOLUTE     
                    0032H     000EH                  *** GAP ***
            DATA    0040H     0001H     ABSOLUTE     
            DATA    0041H     0001H     ABSOLUTE     
                    0042H     000EH                  *** GAP ***
            DATA    0050H     0001H     ABSOLUTE     
            DATA    0051H     0001H     ABSOLUTE     
            DATA    0052H     0001H     ABSOLUTE     
            IDATA   0053H     0001H     UNIT         ?STACK

            * * * * * * *   C O D E   M E M O R Y   * * * * * * *
            CODE    0000H     0003H     ABSOLUTE     
            CODE    0003H     035CH     UNIT         ?PR?PRINTF?PRINTF
            CODE    035FH     0119H     UNIT         ?C?LIB_CODE
            CODE    0478H     007BH     UNIT         ?PR?MAIN?TEST
            CODE    04F3H     0027H     UNIT         ?PR?PUTCHAR?PUTCHAR
            CODE    051AH     000CH     UNIT         ?C_C51STARTUP
            CODE    0526H     0005H     UNIT         ?CO?TEST



OVERLAY MAP OF MODULE:   .\Objects\test (TEST)


BL51 BANKED LINKER/LOCATER V6.22.2.0                                                  03/25/2022  01:01:10  PAGE 2


SEGMENT                           BIT_GROUP          DATA_GROUP 
  +--> CALLED SEGMENT          START    LENGTH     START    LENGTH
------------------------------------------------------------------
?C_C51STARTUP                  -----    -----      -----    -----
  +--> ?PR?MAIN?TEST

?PR?MAIN?TEST                  -----    -----      -----    -----
  +--> ?CO?TEST
  +--> ?PR?PRINTF?PRINTF

?PR?PRINTF?PRINTF              0020H.0  0001H.1    0008H    0014H
  +--> ?PR?PUTCHAR?PUTCHAR



SYMBOL TABLE OF MODULE:  .\Objects\test (TEST)

  VALUE           TYPE          NAME
  ----------------------------------

  -------         MODULE        TEST
  C:0000H         SYMBOL        _ICE_DUMMY_
  B:0098H.1       PUBLIC        TI
  D:0030H         PUBLIC        ww0
  D:0031H         PUBLIC        ww1
  D:0040H         PUBLIC        ww2
  D:0041H         PUBLIC        ww3
  C:0478H         PUBLIC        main
  D:001CH         PUBLIC        k
  D:001EH         PUBLIC        x
  D:0050H         PUBLIC        ee0
  D:0051H         PUBLIC        ee1
  D:0052H         PUBLIC        ee2
  -------         PROC          MAIN
  C:0478H         LINE#         23
  C:0478H         LINE#         24
  C:0478H         LINE#         26
  C:047BH         LINE#         27
  C:047EH         LINE#         28
  C:0481H         LINE#         29
  C:0484H         LINE#         32
  C:04AAH         LINE#         33
  C:04ACH         LINE#         34
  C:04BAH         LINE#         35
  C:04BCH         LINE#         38
  C:04C9H         LINE#         39
  C:04D8H         LINE#         40
  C:04E5H         LINE#         41
  C:04F2H         LINE#         42
  -------         ENDPROC       MAIN
  -------         ENDMOD        TEST

  -------         MODULE        ?C?SIDIV
  C:035FH         PUBLIC        ?C?SIDIV
  -------         ENDMOD        ?C?SIDIV

  -------         MODULE        PRINTF
BL51 BANKED LINKER/LOCATER V6.22.2.0                                                  03/25/2022  01:01:10  PAGE 3


  D:0008H         PUBLIC        ?_PRINTF517?BYTE
  D:0008H         PUBLIC        ?_PRINTF?BYTE
  D:0008H         PUBLIC        ?_SPRINTF517?BYTE
  D:0008H         PUBLIC        ?_SPRINTF?BYTE
  C:0065H         PUBLIC        _PRINTF
  C:0065H         PUBLIC        _PRINTF517
  C:005FH         PUBLIC        _SPRINTF
  C:005FH         PUBLIC        _SPRINTF517
  -------         ENDMOD        PRINTF

  -------         MODULE        ?C?CLDPTR
  C:0395H         PUBLIC        ?C?CLDPTR
  -------         ENDMOD        ?C?CLDPTR

  -------         MODULE        ?C?CLDOPTR
  C:03AEH         PUBLIC        ?C?CLDOPTR
  -------         ENDMOD        ?C?CLDOPTR

  -------         MODULE        ?C?CSTPTR
  C:03DBH         PUBLIC        ?C?CSTPTR
  -------         ENDMOD        ?C?CSTPTR

  -------         MODULE        ?C?UIDIV
  C:03EDH         PUBLIC        ?C?UIDIV
  -------         ENDMOD        ?C?UIDIV

  -------         MODULE        ?C?PLDIIDATA
  C:0442H         PUBLIC        ?C?PLDIIDATA
  -------         ENDMOD        ?C?PLDIIDATA

  -------         MODULE        ?C?CCASE
  C:0452H         PUBLIC        ?C?CCASE
  -------         ENDMOD        ?C?CCASE

  -------         MODULE        PUTCHAR
  C:04F3H         PUBLIC        _PUTCHAR
  -------         ENDMOD        PUTCHAR

Program Size: data=41.1 xdata=0 code=1323
LINK/LOCATE RUN COMPLETE.  0 WARNING(S),  0 ERROR(S)
